target datalayout = "e-m:e-p270:32:32-p271:32:32-p272:64:64-i64:64-i128:128-f80:128-n8:16:32:64-S128"
target triple = "x86_64-unknown-linux-gnu"

%struct.target_sigaction = type { i64, i64, i64, %struct.target_sigset_t }
%struct.target_sigset_t = type { [1 x i64] }
%struct.__sigset_t = type { [16 x i64] }
%struct.CPUState = type { %struct.DeviceState, ptr, i32, i32, ptr, i32, i8, i8, ptr, i8, i8, i8, i8, i8, i8, i8, i8, i32, i32, i32, i32, i64, i64, i64, [1 x %struct.__jmp_buf_tag], %struct.QemuMutex, %struct.anon, ptr, i32, ptr, ptr, ptr, ptr, i32, i32, %union.anon, %union.anon.0, %union.anon.1, ptr, ptr, i64, i32, ptr, ptr, ptr, i32, i64, i32, %struct.QemuLockCnt, [1 x i64], ptr, i32, i32, i32, i32, i32, ptr, i8, i8, i64, i8, i8, ptr, [8 x i8], [0 x i8], %struct.CPUNegativeOffsetState }
%struct.DeviceState = type { %struct.Object, ptr, ptr, i8, i8, i64, ptr, i32, i8, ptr, %struct.NamedGPIOListHead, %struct.NamedClockListHead, %struct.BusStateHead, i32, i32, i32, %struct.ResettableState, ptr, %struct.MemReentrancyGuard }
%struct.Object = type { ptr, ptr, ptr, i32, ptr }
%struct.NamedGPIOListHead = type { ptr }
%struct.NamedClockListHead = type { ptr }
%struct.BusStateHead = type { ptr }
%struct.ResettableState = type { i32, i8, i8 }
%struct.MemReentrancyGuard = type { i8 }
%struct.__jmp_buf_tag = type { [8 x i64], i32, %struct.__sigset_t }
%struct.QemuMutex = type { %union.pthread_mutex_t, i8 }
%union.pthread_mutex_t = type { %struct.__pthread_mutex_s }
%struct.__pthread_mutex_s = type { i32, i32, i32, i32, i32, i16, i16, %struct.__pthread_internal_list }
%struct.__pthread_internal_list = type { ptr, ptr }
%struct.anon = type { ptr, ptr }
%union.anon = type { %struct.QTailQLink }
%struct.QTailQLink = type { ptr, ptr }
%union.anon.0 = type { %struct.QTailQLink }
%union.anon.1 = type { %struct.QTailQLink }
%struct.QemuLockCnt = type { i32 }
%struct.CPUNegativeOffsetState = type { %struct.CPUTLB, %union.IcountDecr, i8, [11 x i8] }
%struct.CPUTLB = type { %struct.CPUTLBCommon, [16 x %struct.CPUTLBDesc], [16 x %struct.CPUTLBDescFast] }
%struct.CPUTLBCommon = type { %struct.QemuSpin, i16, i64, i64, i64 }
%struct.QemuSpin = type { i32 }
%struct.CPUTLBDesc = type { i64, i64, i64, i64, i64, i64, [8 x %union.CPUTLBEntry], [8 x %struct.CPUTLBEntryFull], ptr }
%union.CPUTLBEntry = type { %struct.anon.2 }
%struct.anon.2 = type { i64, i64, i64, i64 }
%struct.CPUTLBEntryFull = type { i64, i64, %struct.MemTxAttrs, i8, i8, [3 x i8], %union.anon.3 }
%struct.MemTxAttrs = type { i32 }
%union.anon.3 = type { %struct.anon.4 }
%struct.anon.4 = type { i8, i8, i8 }
%struct.CPUTLBDescFast = type { i64, ptr }
%union.IcountDecr = type { i32 }
%struct.TaskState = type { i32, i32, i64, i64, i64, i64, i32, ptr, ptr, %struct.emulated_sigtable, [64 x %struct.emulated_sigtable], %struct.__sigset_t, %struct.__sigset_t, i32, i32, %struct.target_sigaltstack, i64 }
%struct.emulated_sigtable = type { i32, %struct.target_siginfo }
%struct.target_siginfo = type { i32, i32, i32, %union.anon.6 }
%union.anon.6 = type { %struct.anon.10, [80 x i8] }
%struct.anon.10 = type { i32, i32, i32, i64, i64 }
%struct.target_sigaltstack = type { i64, i32, i64 }

@thread_cpu = external thread_local global ptr, align 8

; Function Attrs: nounwind sspstrong uwtable
define dso_local i32 @on_sig_stack(i64 noundef %sp) #0 {
entry:
  %sp.addr = alloca i64, align 8
  %ts = alloca ptr, align 8
  store i64 %sp, ptr %sp.addr, align 8
  %0 = call align 8 ptr @llvm.threadlocal.address.p0(ptr align 8 @thread_cpu)
  %1 = load ptr, ptr %0, align 8
  %opaque = getelementptr inbounds %struct.CPUState, ptr %1, i32 0, i32 39
  %2 = load ptr, ptr %opaque, align 16
  store ptr %2, ptr %ts, align 8
  %3 = load i64, ptr %sp.addr, align 8
  %4 = load ptr, ptr %ts, align 8
  %sigaltstack_used = getelementptr inbounds %struct.TaskState, ptr %4, i32 0, i32 15
  %ss_sp = getelementptr inbounds %struct.target_sigaltstack, ptr %sigaltstack_used, i32 0, i32 0
  %5 = load i64, ptr %ss_sp, align 8
  %sub = sub i64 %3, %5
  %6 = load ptr, ptr %ts, align 8
  %sigaltstack_used1 = getelementptr inbounds %struct.TaskState, ptr %6, i32 0, i32 15
  %ss_size = getelementptr inbounds %struct.target_sigaltstack, ptr %sigaltstack_used1, i32 0, i32 2
  %7 = load i64, ptr %ss_size, align 8
  %cmp = icmp ult i64 %sub, %7
  %conv = zext i1 %cmp to i32
  ret i32 %conv
}

; Function Attrs: nounwind sspstrong uwtable
define dso_local i32 @sas_ss_flags(i64 noundef %sp) #0 {
entry:
  %sp.addr = alloca i64, align 8
  %ts = alloca ptr, align 8
  store i64 %sp, ptr %sp.addr, align 8
  %0 = call align 8 ptr @llvm.threadlocal.address.p0(ptr align 8 @thread_cpu)
  %1 = load ptr, ptr %0, align 8
  %opaque = getelementptr inbounds %struct.CPUState, ptr %1, i32 0, i32 39
  %2 = load ptr, ptr %opaque, align 16
  store ptr %2, ptr %ts, align 8
  %3 = load ptr, ptr %ts, align 8
  %sigaltstack_used = getelementptr inbounds %struct.TaskState, ptr %3, i32 0, i32 15
  %ss_size = getelementptr inbounds %struct.target_sigaltstack, ptr %sigaltstack_used, i32 0, i32 2
  %4 = load i64, ptr %ss_size, align 8
  %cmp = icmp eq i64 %4, 0
  br i1 %cmp, label %cond.true, label %cond.false

cond.true:                                        ; preds = %entry
  br label %cond.end

cond.false:                                       ; preds = %entry
  %5 = load i64, ptr %sp.addr, align 8
  %call = call i32 @on_sig_stack(i64 noundef %5)
  %tobool = icmp ne i32 %call, 0
  %cond = select i1 %tobool, i32 1, i32 0
  br label %cond.end

cond.end:                                         ; preds = %cond.false, %cond.true
  %cond1 = phi i32 [ 2, %cond.true ], [ %cond, %cond.false ]
  ret i32 %cond1
}

; Function Attrs: nounwind sspstrong uwtable
define dso_local i64 @target_sigsp(i64 noundef %sp, ptr noundef %ka) #0 {
entry:
  %retval = alloca i64, align 8
  %sp.addr = alloca i64, align 8
  %ka.addr = alloca ptr, align 8
  %ts = alloca ptr, align 8
  store i64 %sp, ptr %sp.addr, align 8
  store ptr %ka, ptr %ka.addr, align 8
  %0 = call align 8 ptr @llvm.threadlocal.address.p0(ptr align 8 @thread_cpu)
  %1 = load ptr, ptr %0, align 8
  %opaque = getelementptr inbounds %struct.CPUState, ptr %1, i32 0, i32 39
  %2 = load ptr, ptr %opaque, align 16
  store ptr %2, ptr %ts, align 8
  %3 = load ptr, ptr %ka.addr, align 8
  %sa_flags = getelementptr inbounds %struct.target_sigaction, ptr %3, i32 0, i32 1
  %4 = load i64, ptr %sa_flags, align 8
  %and = and i64 %4, 134217728
  %tobool = icmp ne i64 %and, 0
  br i1 %tobool, label %land.lhs.true, label %if.end

land.lhs.true:                                    ; preds = %entry
  %5 = load i64, ptr %sp.addr, align 8
  %call = call i32 @sas_ss_flags(i64 noundef %5)
  %tobool1 = icmp ne i32 %call, 0
  br i1 %tobool1, label %if.end, label %if.then

if.then:                                          ; preds = %land.lhs.true
  %6 = load ptr, ptr %ts, align 8
  %sigaltstack_used = getelementptr inbounds %struct.TaskState, ptr %6, i32 0, i32 15
  %ss_sp = getelementptr inbounds %struct.target_sigaltstack, ptr %sigaltstack_used, i32 0, i32 0
  %7 = load i64, ptr %ss_sp, align 8
  %8 = load ptr, ptr %ts, align 8
  %sigaltstack_used2 = getelementptr inbounds %struct.TaskState, ptr %8, i32 0, i32 15
  %ss_size = getelementptr inbounds %struct.target_sigaltstack, ptr %sigaltstack_used2, i32 0, i32 2
  %9 = load i64, ptr %ss_size, align 8
  %add = add i64 %7, %9
  store i64 %add, ptr %retval, align 8
  br label %return

if.end:                                           ; preds = %land.lhs.true, %entry
  %10 = load i64, ptr %sp.addr, align 8
  store i64 %10, ptr %retval, align 8
  br label %return

return:                                           ; preds = %if.end, %if.then
  %11 = load i64, ptr %retval, align 8
  ret i64 %11
}