; Function Attrs: mustprogress nofree norecurse nosync nounwind sspstrong willreturn memory(read, inaccessiblemem: none) uwtable
define dso_local i64 @target_sigsp(i64 noundef %sp, ptr noundef readonly captures(none) %ka) local_unnamed_addr #7 {
entry:
  %0 = tail call align 8 ptr @llvm.threadlocal.address.p0(ptr align 8 @thread_cpu)
  %1 = load ptr, ptr %0, align 8
  %opaque = getelementptr inbounds nuw i8, ptr %1, i64 624
  %2 = load ptr, ptr %opaque, align 16
  %sa_flags = getelementptr inbounds nuw i8, ptr %ka, i64 8
  %3 = load i64, ptr %sa_flags, align 8
  %and = and i64 %3, 134217728
  %tobool.not = icmp eq i64 %and, 0
  br i1 %tobool.not, label %return, label %land.lhs.true

land.lhs.true:                                    ; preds = %entry
  %ss_size.i = getelementptr inbounds nuw i8, ptr %2, i64 9184
  %4 = load i64, ptr %ss_size.i, align 8
  %cmp.i = icmp eq i64 %4, 0
  br i1 %cmp.i, label %return, label %sas_ss_flags.exit

sas_ss_flags.exit:                                ; preds = %land.lhs.true
  %sigaltstack_used.i.i = getelementptr inbounds nuw i8, ptr %2, i64 9168
  %5 = load i64, ptr %sigaltstack_used.i.i, align 8
  %sub.i.i = sub i64 %sp, %5
  %cmp.i.i.not = icmp ult i64 %sub.i.i, %4
  %add = add i64 %5, %4
  %spec.select = select i1 %cmp.i.i.not, i64 %sp, i64 %add
  br label %return

return:                                           ; preds = %sas_ss_flags.exit, %land.lhs.true, %entry
  %retval.0 = phi i64 [ %sp, %entry ], [ %sp, %land.lhs.true ], [ %spec.select, %sas_ss_flags.exit ]
  ret i64 %retval.0
}